; Function Attrs: nofree norecurse nosync nounwind memory(write, argmem: readwrite, inaccessiblemem: none) uwtable
define void @H5F_addr_encode_len(i64 noundef %0, ptr nocapture noundef %1, i64 noundef %2) local_unnamed_addr #7 {
  %.not = icmp eq i64 %2, -1
  %.not19 = icmp eq i64 %0, 0
  br i1 %.not, label %.preheader, label %.preheader12

.preheader12:                                     ; preds = %3
  br i1 %.not19, label %.loopexit, label %.lr.ph

.preheader:                                       ; preds = %3
  br i1 %.not19, label %.loopexit, label %.lr.ph17

.lr.ph:                                           ; preds = %.preheader12, %.lr.ph
  %.015 = phi i32 [ %8, %.lr.ph ], [ 0, %.preheader12 ]
  %.01014 = phi i64 [ %7, %.lr.ph ], [ %2, %.preheader12 ]
  %4 = trunc i64 %.01014 to i8
  %5 = load ptr, ptr %1, align 8
  %6 = getelementptr inbounds i8, ptr %5, i64 1
  store ptr %6, ptr %1, align 8
  store i8 %4, ptr %5, align 1
  %7 = lshr i64 %.01014, 8
  %8 = add i32 %.015, 1
  %9 = zext i32 %8 to i64
  %10 = icmp ult i64 %9, %0
  br i1 %10, label %.lr.ph, label %.loopexit

.lr.ph17:                                         ; preds = %.preheader, %.lr.ph17
  %.116 = phi i32 [ %13, %.lr.ph17 ], [ 0, %.preheader ]
  %11 = load ptr, ptr %1, align 8
  %12 = getelementptr inbounds i8, ptr %11, i64 1
  store ptr %12, ptr %1, align 8
  store i8 -1, ptr %11, align 1
  %13 = add i32 %.116, 1
  %14 = zext i32 %13 to i64
  %15 = icmp ult i64 %14, %0
  br i1 %15, label %.lr.ph17, label %.loopexit

.loopexit:                                        ; preds = %.lr.ph, %.lr.ph17, %.preheader12, %.preheader
  ret void
}